target datalayout = "e-m:e-p270:32:32-p271:32:32-p272:64:64-i64:64-i128:128-f80:128-n8:16:32:64-S128"
target triple = "x86_64-pc-linux-gnu"

%struct.slurm_conf_t = type { i64, ptr, i16, ptr, ptr, ptr, ptr, ptr, i16, ptr, ptr, ptr, ptr, ptr, ptr, ptr, i16, ptr, ptr, ptr, ptr, i16, ptr, ptr, ptr, i64, ptr, ptr, ptr, ptr, i16, ptr, ptr, i16, i32, ptr, i32, ptr, i32, i32, ptr, ptr, i64, i64, ptr, i16, i16, ptr, i32, i32, ptr, i32, ptr, i32, i16, i16, i16, ptr, i16, i16, ptr, ptr, i32, i16, i16, ptr, i32, i16, ptr, ptr, ptr, ptr, i16, ptr, ptr, ptr, ptr, i32, ptr, ptr, ptr, ptr, i16, i16, ptr, i32, i32, i32, i16, i16, ptr, ptr, i16, ptr, ptr, i32, i32, i32, i32, i32, i64, i32, i32, i16, ptr, ptr, i32, ptr, ptr, ptr, i16, i32, ptr, ptr, i16, ptr, ptr, i32, i16, ptr, ptr, ptr, ptr, i32, i32, i16, i16, i32, ptr, i16, ptr, i32, i32, i32, i32, i32, i32, ptr, i16, ptr, ptr, i32, i16, ptr, i32, i16, i16, ptr, ptr, ptr, i16, ptr, ptr, ptr, ptr, i16, i16, ptr, i16, ptr, i16, ptr, i16, ptr, i16, ptr, ptr, ptr, ptr, i16, ptr, ptr, ptr, i32, ptr, i32, ptr, ptr, i16, ptr, ptr, i32, i16, ptr, ptr, i16, i16, ptr, i16, ptr, ptr, ptr, i32, ptr, i16, i16, ptr, ptr, ptr, ptr, ptr, ptr, ptr, ptr, i16, i32, i16, ptr, ptr, ptr, ptr, i32, ptr, ptr, ptr, i16, ptr, ptr, ptr, i16, ptr, i16, ptr, i16, i16, ptr }
%struct.job_record = type { i32, ptr, ptr, ptr, ptr, i16, i32, i32, i32, ptr, i32, ptr, ptr, i16, ptr, double, i64, ptr, ptr, ptr, ptr, ptr, ptr, i32, ptr, i32, i64, i64, i32, i32, ptr, i16, i64, i64, i8, i32, ptr, ptr, ptr, ptr, ptr, ptr, ptr, ptr, i32, ptr, ptr, i32, ptr, i32, ptr, i32, ptr, i32, ptr, ptr, ptr, ptr, ptr, ptr, i32, i16, i64, ptr, ptr, ptr, ptr, %struct.acct_policy_limit_set_t, i16, ptr, ptr, ptr, ptr, ptr, i32, ptr, ptr, ptr, ptr, ptr, i32, i32, ptr, ptr, ptr, i16, ptr, ptr, i8, ptr, ptr, i64, i64, i8, i32, i32, i8, i32, ptr, i32, i64, i32, ptr, ptr, ptr, i8, i16, i64, i32, ptr, ptr, ptr, ptr, ptr, i16, i32, ptr, ptr, ptr, ptr, i32, ptr, i32, i16, i64, ptr, i32, i32, ptr, i64, ptr, ptr, i64, i32, i32, i64, i32, i32, ptr, ptr, ptr, ptr, ptr, ptr, ptr, ptr, ptr, ptr, ptr, ptr, i32, ptr, i16, i16, i16, i16, ptr, i32, i32, i8, i64 }
%struct.acct_policy_limit_set_t = type { i16, i16, ptr }
%struct.array_job_state_cached_t = type { i32, i32 }

@slurm_conf = external global %struct.slurm_conf_t, align 8
@.str.11 = private unnamed_addr constant [21 x i8] c"_array_job_on_insert\00", align 1
@.str.37 = private unnamed_addr constant [29 x i8] c"TRACE_JOBS: %s: %pJ inserted\00", align 1

; Function Attrs: nounwind uwtable
define internal void @_array_job_on_insert(ptr noundef %0, ptr noundef %1, i64 noundef %2, ptr noundef %3) #0 {
  %5 = alloca ptr, align 8
  %6 = alloca ptr, align 8
  %7 = alloca i64, align 8
  %8 = alloca ptr, align 8
  %9 = alloca ptr, align 8
  %10 = alloca ptr, align 8
  %11 = alloca ptr, align 8
  %12 = alloca %struct.array_job_state_cached_t, align 4
  %13 = alloca %struct.job_record, align 8
  store ptr %0, ptr %5, align 8
  store ptr %1, ptr %6, align 8
  store i64 %2, ptr %7, align 8
  store ptr %3, ptr %8, align 8
  call void @llvm.lifetime.start.p0(i64 8, ptr %9) #8
  %14 = load ptr, ptr %5, align 8
  store ptr %14, ptr %9, align 8
  call void @llvm.lifetime.start.p0(i64 8, ptr %10) #8
  %15 = load ptr, ptr %8, align 8
  store ptr %15, ptr %10, align 8
  call void @llvm.lifetime.start.p0(i64 8, ptr %11) #8
  %16 = load ptr, ptr %6, align 8
  store ptr %16, ptr %11, align 8
  %17 = load ptr, ptr %9, align 8
  %18 = getelementptr inbounds nuw %struct.array_job_state_cached_t, ptr %12, i32 0, i32 0
  %19 = load ptr, ptr %11, align 8
  %20 = load i32, ptr %19, align 4
  store i32 %20, ptr %18, align 4
  %21 = getelementptr inbounds nuw %struct.array_job_state_cached_t, ptr %12, i32 0, i32 1
  %22 = load ptr, ptr %11, align 8
  %23 = load i32, ptr %22, align 4
  store i32 %23, ptr %21, align 4
  call void @llvm.memcpy.p0.p0.i64(ptr align 4 %17, ptr align 4 %12, i64 8, i1 false)
  br label %24

24:                                               ; preds = %4
  %25 = load i64, ptr getelementptr inbounds nuw (%struct.slurm_conf_t, ptr @slurm_conf, i32 0, i32 42), align 8
  %26 = and i64 %25, 268435456
  %27 = icmp ne i64 %26, 0
  br i1 %27, label %28, label %42

28:                                               ; preds = %24
  br label %29

29:                                               ; preds = %28
  %30 = call i32 @get_log_level()
  %31 = icmp sge i32 %30, 4
  br i1 %31, label %32, label %39

32:                                               ; preds = %29
  call void @llvm.memset.p0.i64(ptr align 8 %13, i8 0, i64 1152, i1 false)
  %33 = getelementptr inbounds nuw %struct.job_record, ptr %13, i32 0, i32 0
  store i32 -256427732, ptr %33, align 8
  %34 = getelementptr inbounds nuw %struct.job_record, ptr %13, i32 0, i32 8
  store i32 -2, ptr %34, align 4
  %35 = getelementptr inbounds nuw %struct.job_record, ptr %13, i32 0, i32 53
  %36 = load ptr, ptr %9, align 8
  %37 = getelementptr inbounds nuw %struct.array_job_state_cached_t, ptr %36, i32 0, i32 0
  %38 = load i32, ptr %37, align 4
  store i32 %38, ptr %35, align 8
  call void (i32, ptr, ...) @log_var(i32 noundef 4, ptr noundef @.str.37, ptr noundef @.str.11, ptr noundef %13)
  br label %39

39:                                               ; preds = %32, %29
  br label %40

40:                                               ; preds = %39
  br label %41

41:                                               ; preds = %40
  br label %42

42:                                               ; preds = %41, %24
  br label %43

43:                                               ; preds = %42
  br label %44

44:                                               ; preds = %43
  call void @llvm.lifetime.end.p0(i64 8, ptr %11) #8
  call void @llvm.lifetime.end.p0(i64 8, ptr %10) #8
  call void @llvm.lifetime.end.p0(i64 8, ptr %9) #8
  ret void
}