; Function Attrs: nounwind uwtable
define internal void @_array_job_on_insert(ptr noundef captures(none) initializes((0, 8)) %0, ptr noundef readonly captures(none) %1, i64 %2, ptr readnone captures(none) %3) #0 {
  %5 = alloca %struct.job_record, align 8
  %6 = load i32, ptr %1, align 4
  store i32 %6, ptr %0, align 4
  %.sroa.2.0..sroa_idx = getelementptr inbounds nuw i8, ptr %0, i64 4
  store i32 %6, ptr %.sroa.2.0..sroa_idx, align 4
  %7 = load i64, ptr getelementptr inbounds nuw (i8, ptr @slurm_conf, i64 320), align 8
  %8 = and i64 %7, 268435456
  %.not = icmp eq i64 %8, 0
  br i1 %.not, label %16, label %9

9:                                                ; preds = %4
  %10 = tail call i32 @get_log_level() #9
  %11 = icmp sgt i32 %10, 3
  br i1 %11, label %12, label %16

12:                                               ; preds = %9
  call void @llvm.memset.p0.i64(ptr noundef nonnull align 8 dereferenceable(1152) %5, i8 0, i64 1152, i1 false)
  store i32 -256427732, ptr %5, align 8
  %13 = getelementptr inbounds nuw i8, ptr %5, i64 52
  store i32 -2, ptr %13, align 4
  %14 = getelementptr inbounds nuw i8, ptr %5, i64 392
  %15 = load i32, ptr %0, align 4
  store i32 %15, ptr %14, align 8
  call void (i32, ptr, ...) @log_var(i32 noundef 4, ptr noundef nonnull @.str.37, ptr noundef nonnull @.str.11, ptr noundef nonnull %5) #9
  br label %16

16:                                               ; preds = %9, %12, %4
  ret void
}